target datalayout = "e-m:e-p270:32:32-p271:32:32-p272:64:64-i64:64-i128:128-f80:128-n8:16:32:64-S128"
target triple = "x86_64-pc-linux-gnu"

%class.anon = type { i32, ptr, i64, i64 }

; Function Attrs: inlinehint mustprogress uwtable
define internal noundef i64 @"_ZZN6google24glog_internal_namespace_L14ReadFromOffsetEiPvmmENK3$_0clEv"(ptr noundef nonnull align 8 dereferenceable(32) %0) #7 align 2 {
  %2 = alloca ptr, align 8
  store ptr %0, ptr %2, align 8, !tbaa !3
  %3 = load ptr, ptr %2, align 8
  %4 = getelementptr inbounds nuw %class.anon, ptr %3, i32 0, i32 0
  %5 = load i32, ptr %4, align 8, !tbaa !24
  %6 = getelementptr inbounds nuw %class.anon, ptr %3, i32 0, i32 1
  %7 = load ptr, ptr %6, align 8, !tbaa !26
  %8 = getelementptr inbounds nuw %class.anon, ptr %3, i32 0, i32 2
  %9 = load i64, ptr %8, align 8, !tbaa !27
  %10 = getelementptr inbounds nuw %class.anon, ptr %3, i32 0, i32 3
  %11 = load i64, ptr %10, align 8, !tbaa !28
  %12 = call i64 @pread(i32 noundef %5, ptr noundef %7, i64 noundef %9, i64 noundef %11)
  ret i64 %12
}

; Function Attrs: mustprogress uwtable
define internal noundef i64 @"_ZN6google24glog_internal_namespace_12_GLOBAL__N_112FailureRetryIZNS0_L14ReadFromOffsetEiPvmmE3$_0EEDaT_i"(ptr noundef byval(%class.anon) align 8 %0, i32 noundef %1) #1 {
  %3 = alloca i32, align 4
  %4 = alloca i64, align 8
  store i32 %1, ptr %3, align 4, !tbaa !7
  call void @llvm.lifetime.start.p0(i64 8, ptr %4) #14
  br label %5

5:                                                ; preds = %15, %2
  %6 = call noundef i64 @"_ZZN6google24glog_internal_namespace_L14ReadFromOffsetEiPvmmENK3$_0clEv"(ptr noundef nonnull align 8 dereferenceable(32) %0)
  store i64 %6, ptr %4, align 8, !tbaa !11
  %7 = icmp eq i64 %6, -1
  br i1 %7, label %8, label %13

8:                                                ; preds = %5
  %9 = call ptr @__errno_location() #17
  %10 = load i32, ptr %9, align 4, !tbaa !7
  %11 = load i32, ptr %3, align 4, !tbaa !7
  %12 = icmp eq i32 %10, %11
  br label %13

13:                                               ; preds = %8, %5
  %14 = phi i1 [ false, %5 ], [ %12, %8 ]
  br i1 %14, label %15, label %16

15:                                               ; preds = %13
  br label %5, !llvm.loop !33

16:                                               ; preds = %13
  %17 = load i64, ptr %4, align 8, !tbaa !11
  call void @llvm.lifetime.end.p0(i64 8, ptr %4) #14
  ret i64 %17
}

; Function Attrs: mustprogress nounwind uwtable
define linkonce_odr hidden noundef i64 @_ZNSt14numeric_limitsIlE3maxEv() #0 comdat align 2 {
  ret i64 9223372036854775807
}

; Function Attrs: mustprogress uwtable
define internal noundef i64 @_ZN6google24glog_internal_namespace_L14ReadFromOffsetEiPvmm(i32 noundef %0, ptr noundef %1, i64 noundef %2, i64 noundef %3) #1 {
  %5 = alloca i64, align 8
  %6 = alloca i32, align 4
  %7 = alloca ptr, align 8
  %8 = alloca i64, align 8
  %9 = alloca i64, align 8
  %10 = alloca ptr, align 8
  %11 = alloca i64, align 8
  %12 = alloca i64, align 8
  %13 = alloca %class.anon, align 8
  %14 = alloca i32, align 4
  store i32 %0, ptr %6, align 4, !tbaa !7
  store ptr %1, ptr %7, align 8, !tbaa !3
  store i64 %2, ptr %8, align 8, !tbaa !11
  store i64 %3, ptr %9, align 8, !tbaa !11
  %15 = load i32, ptr %6, align 4, !tbaa !7
  %16 = icmp sge i32 %15, 0
  br i1 %16, label %17, label %18

17:                                               ; preds = %4
  br label %20

18:                                               ; preds = %4
  call void @abort() #16
  unreachable

19:                                               ; No predecessors!
  br label %20

20:                                               ; preds = %19, %17
  %21 = load i64, ptr %8, align 8, !tbaa !11
  %22 = call noundef i64 @_ZNSt14numeric_limitsIlE3maxEv() #14
  %23 = icmp ule i64 %21, %22
  br i1 %23, label %24, label %25

24:                                               ; preds = %20
  br label %27

25:                                               ; preds = %20
  call void @abort() #16
  unreachable

26:                                               ; No predecessors!
  br label %27

27:                                               ; preds = %26, %24
  call void @llvm.lifetime.start.p0(i64 8, ptr %10) #14
  %28 = load ptr, ptr %7, align 8, !tbaa !3
  store ptr %28, ptr %10, align 8, !tbaa !9
  call void @llvm.lifetime.start.p0(i64 8, ptr %11) #14
  store i64 0, ptr %11, align 8, !tbaa !11
  br label %29

29:                                               ; preds = %62, %27
  %30 = load i64, ptr %11, align 8, !tbaa !11
  %31 = load i64, ptr %8, align 8, !tbaa !11
  %32 = icmp ult i64 %30, %31
  br i1 %32, label %33, label %63

33:                                               ; preds = %29
  call void @llvm.lifetime.start.p0(i64 8, ptr %12) #14
  %34 = getelementptr inbounds nuw %class.anon, ptr %13, i32 0, i32 0
  %35 = load i32, ptr %6, align 4, !tbaa !7
  store i32 %35, ptr %34, align 8, !tbaa !24
  %36 = getelementptr inbounds nuw %class.anon, ptr %13, i32 0, i32 1
  %37 = load ptr, ptr %10, align 8, !tbaa !9
  %38 = load i64, ptr %11, align 8, !tbaa !11
  %39 = getelementptr inbounds nuw i8, ptr %37, i64 %38
  store ptr %39, ptr %36, align 8, !tbaa !26
  %40 = getelementptr inbounds nuw %class.anon, ptr %13, i32 0, i32 2
  %41 = load i64, ptr %8, align 8, !tbaa !11
  %42 = load i64, ptr %11, align 8, !tbaa !11
  %43 = sub i64 %41, %42
  store i64 %43, ptr %40, align 8, !tbaa !27
  %44 = getelementptr inbounds nuw %class.anon, ptr %13, i32 0, i32 3
  %45 = load i64, ptr %9, align 8, !tbaa !11
  %46 = load i64, ptr %11, align 8, !tbaa !11
  %47 = add i64 %45, %46
  store i64 %47, ptr %44, align 8, !tbaa !28
  %48 = call noundef i64 @"_ZN6google24glog_internal_namespace_12_GLOBAL__N_112FailureRetryIZNS0_L14ReadFromOffsetEiPvmmE3$_0EEDaT_i"(ptr noundef byval(%class.anon) align 8 %13, i32 noundef 4)
  store i64 %48, ptr %12, align 8, !tbaa !11
  %49 = load i64, ptr %12, align 8, !tbaa !11
  %50 = icmp slt i64 %49, 0
  br i1 %50, label %51, label %52

51:                                               ; preds = %33
  store i64 -1, ptr %5, align 8
  store i32 1, ptr %14, align 4
  br label %60

52:                                               ; preds = %33
  %53 = load i64, ptr %12, align 8, !tbaa !11
  %54 = icmp eq i64 %53, 0
  br i1 %54, label %55, label %56

55:                                               ; preds = %52
  store i32 3, ptr %14, align 4
  br label %60

56:                                               ; preds = %52
  %57 = load i64, ptr %12, align 8, !tbaa !11
  %58 = load i64, ptr %11, align 8, !tbaa !11
  %59 = add i64 %58, %57
  store i64 %59, ptr %11, align 8, !tbaa !11
  store i32 0, ptr %14, align 4
  br label %60

60:                                               ; preds = %56, %55, %51
  call void @llvm.lifetime.end.p0(i64 8, ptr %12) #14
  %61 = load i32, ptr %14, align 4
  switch i32 %61, label %72 [
    i32 0, label %62
    i32 3, label %63
  ]

62:                                               ; preds = %60
  br label %29, !llvm.loop !29

63:                                               ; preds = %60, %29
  %64 = load i64, ptr %11, align 8, !tbaa !11
  %65 = load i64, ptr %8, align 8, !tbaa !11
  %66 = icmp ule i64 %64, %65
  br i1 %66, label %67, label %68

67:                                               ; preds = %63
  br label %70

68:                                               ; preds = %63
  call void @abort() #16
  unreachable

69:                                               ; No predecessors!
  br label %70

70:                                               ; preds = %69, %67
  %71 = load i64, ptr %11, align 8, !tbaa !11
  store i64 %71, ptr %5, align 8
  store i32 1, ptr %14, align 4
  br label %72

72:                                               ; preds = %70, %60
  call void @llvm.lifetime.end.p0(i64 8, ptr %11) #14
  call void @llvm.lifetime.end.p0(i64 8, ptr %10) #14
  %73 = load i64, ptr %5, align 8
  ret i64 %73
}