; Function Attrs: mustprogress nofree uwtable
define internal fastcc noundef i64 @_ZN6google24glog_internal_namespace_L14ReadFromOffsetEiPvmm(i32 noundef %0, ptr noundef captures(none) %1, i64 noundef %2, i64 noundef %3) unnamed_addr #4 {
  %5 = icmp sgt i32 %0, -1
  br i1 %5, label %7, label %6

6:                                                ; preds = %4
  tail call void @abort() #21
  unreachable

7:                                                ; preds = %4
  %.not = icmp slt i64 %2, 0
  br i1 %.not, label %8, label %.preheader

8:                                                ; preds = %7
  tail call void @abort() #21
  unreachable

.preheader:                                       ; preds = %7, %"_ZN6google24glog_internal_namespace_12_GLOBAL__N_112FailureRetryIZNS0_L14ReadFromOffsetEiPvmmE3$_0EEDaT_i.exit"
  %.021 = phi i64 [ %.223, %"_ZN6google24glog_internal_namespace_12_GLOBAL__N_112FailureRetryIZNS0_L14ReadFromOffsetEiPvmmE3$_0EEDaT_i.exit" ], [ 0, %7 ]
  %9 = icmp ult i64 %.021, %2
  br i1 %9, label %10, label %24

10:                                               ; preds = %.preheader
  %11 = getelementptr inbounds nuw i8, ptr %1, i64 %.021
  %12 = sub nuw i64 %2, %.021
  %13 = add i64 %.021, %3
  br label %14

14:                                               ; preds = %17, %10
  %15 = tail call noundef i64 @pread(i32 noundef %0, ptr noundef %11, i64 noundef %12, i64 noundef %13)
  %16 = icmp eq i64 %15, -1
  br i1 %16, label %17, label %"_ZN6google24glog_internal_namespace_12_GLOBAL__N_112FailureRetryIZNS0_L14ReadFromOffsetEiPvmmE3$_0EEDaT_i.exit"

17:                                               ; preds = %14
  %18 = tail call ptr @__errno_location() #22
  %19 = load i32, ptr %18, align 4, !tbaa !7
  %20 = icmp eq i32 %19, 4
  br i1 %20, label %14, label %"_ZN6google24glog_internal_namespace_12_GLOBAL__N_112FailureRetryIZNS0_L14ReadFromOffsetEiPvmmE3$_0EEDaT_i.exit.thread", !llvm.loop !9

"_ZN6google24glog_internal_namespace_12_GLOBAL__N_112FailureRetryIZNS0_L14ReadFromOffsetEiPvmmE3$_0EEDaT_i.exit": ; preds = %14
  %21 = icmp slt i64 %15, 0
  %22 = icmp eq i64 %15, 0
  %spec.select28 = select i1 %22, i32 3, i32 0
  %23 = tail call i64 @llvm.smax.i64(i64 %15, i64 0)
  %.223 = add i64 %23, %.021
  %.0 = select i1 %21, i32 1, i32 %spec.select28
  switch i32 %.0, label %"_ZN6google24glog_internal_namespace_12_GLOBAL__N_112FailureRetryIZNS0_L14ReadFromOffsetEiPvmmE3$_0EEDaT_i.exit.thread" [
    i32 0, label %.preheader
    i32 3, label %24
  ], !llvm.loop !11

24:                                               ; preds = %"_ZN6google24glog_internal_namespace_12_GLOBAL__N_112FailureRetryIZNS0_L14ReadFromOffsetEiPvmmE3$_0EEDaT_i.exit", %.preheader
  %.122 = phi i64 [ %.223, %"_ZN6google24glog_internal_namespace_12_GLOBAL__N_112FailureRetryIZNS0_L14ReadFromOffsetEiPvmmE3$_0EEDaT_i.exit" ], [ %.021, %.preheader ]
  %.not27 = icmp ugt i64 %.122, %2
  br i1 %.not27, label %25, label %"_ZN6google24glog_internal_namespace_12_GLOBAL__N_112FailureRetryIZNS0_L14ReadFromOffsetEiPvmmE3$_0EEDaT_i.exit.thread"

25:                                               ; preds = %24
  tail call void @abort() #21
  unreachable

"_ZN6google24glog_internal_namespace_12_GLOBAL__N_112FailureRetryIZNS0_L14ReadFromOffsetEiPvmmE3$_0EEDaT_i.exit.thread": ; preds = %"_ZN6google24glog_internal_namespace_12_GLOBAL__N_112FailureRetryIZNS0_L14ReadFromOffsetEiPvmmE3$_0EEDaT_i.exit", %17, %24
  %.2 = phi i64 [ %.122, %24 ], [ -1, %17 ], [ -1, %"_ZN6google24glog_internal_namespace_12_GLOBAL__N_112FailureRetryIZNS0_L14ReadFromOffsetEiPvmmE3$_0EEDaT_i.exit" ]
  ret i64 %.2
}